target datalayout = "e-m:e-p270:32:32-p271:32:32-p272:64:64-i64:64-i128:128-f80:128-n8:16:32:64-S128"
target triple = "x86_64-unknown-linux-gnu"

@.str = private unnamed_addr constant [22 x i8] c"start >= 0 && nr >= 0\00", align 1
@.str.1 = private unnamed_addr constant [22 x i8] c"../qemu/util/bitmap.c\00", align 1
@__PRETTY_FUNCTION__.bitmap_test_and_clear = private unnamed_addr constant [57 x i8] c"_Bool bitmap_test_and_clear(unsigned long *, long, long)\00", align 1

; Function Attrs: nounwind sspstrong uwtable
define dso_local zeroext i1 @bitmap_test_and_clear(ptr noundef %map, i64 noundef %start, i64 noundef %nr) #0 {
entry:
  %map.addr = alloca ptr, align 8
  %start.addr = alloca i64, align 8
  %nr.addr = alloca i64, align 8
  %p = alloca ptr, align 8
  %size = alloca i64, align 8
  %bits_to_clear = alloca i32, align 4
  %mask_to_clear = alloca i64, align 8
  %dirty = alloca i8, align 1
  store ptr %map, ptr %map.addr, align 8
  store i64 %start, ptr %start.addr, align 8
  store i64 %nr, ptr %nr.addr, align 8
  %0 = load ptr, ptr %map.addr, align 8
  %1 = load i64, ptr %start.addr, align 8
  %div = udiv i64 %1, 64
  %add.ptr = getelementptr i64, ptr %0, i64 %div
  store ptr %add.ptr, ptr %p, align 8
  %2 = load i64, ptr %start.addr, align 8
  %3 = load i64, ptr %nr.addr, align 8
  %add = add i64 %2, %3
  store i64 %add, ptr %size, align 8
  %4 = load i64, ptr %start.addr, align 8
  %rem = urem i64 %4, 64
  %sub = sub i64 64, %rem
  %conv = trunc i64 %sub to i32
  store i32 %conv, ptr %bits_to_clear, align 4
  %5 = load i64, ptr %start.addr, align 8
  %and = and i64 %5, 63
  %shl = shl i64 -1, %and
  store i64 %shl, ptr %mask_to_clear, align 8
  store i8 0, ptr %dirty, align 1
  %6 = load i64, ptr %start.addr, align 8
  %cmp = icmp sge i64 %6, 0
  br i1 %cmp, label %land.lhs.true, label %if.else

land.lhs.true:                                    ; preds = %entry
  %7 = load i64, ptr %nr.addr, align 8
  %cmp2 = icmp sge i64 %7, 0
  br i1 %cmp2, label %if.then, label %if.else

if.then:                                          ; preds = %land.lhs.true
  br label %if.end

if.else:                                          ; preds = %land.lhs.true, %entry
  call void @__assert_fail(ptr noundef @.str, ptr noundef @.str.1, i32 noundef 251, ptr noundef @__PRETTY_FUNCTION__.bitmap_test_and_clear) #6
  unreachable

if.end:                                           ; preds = %if.then
  %8 = load i64, ptr %nr.addr, align 8
  %9 = load i32, ptr %bits_to_clear, align 4
  %conv4 = sext i32 %9 to i64
  %sub5 = sub i64 %8, %conv4
  %cmp6 = icmp sgt i64 %sub5, 0
  br i1 %cmp6, label %if.then8, label %if.end15

if.then8:                                         ; preds = %if.end
  %10 = load ptr, ptr %p, align 8
  %11 = load i64, ptr %10, align 8
  %12 = load i64, ptr %mask_to_clear, align 8
  %and9 = and i64 %11, %12
  %tobool = icmp ne i64 %and9, 0
  br i1 %tobool, label %if.then10, label %if.end11

if.then10:                                        ; preds = %if.then8
  store i8 1, ptr %dirty, align 1
  br label %if.end11

if.end11:                                         ; preds = %if.then10, %if.then8
  %13 = load i64, ptr %mask_to_clear, align 8
  %not = xor i64 %13, -1
  %14 = load ptr, ptr %p, align 8
  %15 = load i64, ptr %14, align 8
  %and12 = and i64 %15, %not
  store i64 %and12, ptr %14, align 8
  %16 = load i32, ptr %bits_to_clear, align 4
  %conv13 = sext i32 %16 to i64
  %17 = load i64, ptr %nr.addr, align 8
  %sub14 = sub i64 %17, %conv13
  store i64 %sub14, ptr %nr.addr, align 8
  store i32 64, ptr %bits_to_clear, align 4
  %18 = load ptr, ptr %p, align 8
  %incdec.ptr = getelementptr i64, ptr %18, i32 1
  store ptr %incdec.ptr, ptr %p, align 8
  br label %if.end15

if.end15:                                         ; preds = %if.end11, %if.end
  %19 = load i32, ptr %bits_to_clear, align 4
  %conv16 = sext i32 %19 to i64
  %cmp17 = icmp eq i64 %conv16, 64
  br i1 %cmp17, label %if.then19, label %if.end27

if.then19:                                        ; preds = %if.end15
  br label %while.cond

while.cond:                                       ; preds = %if.end24, %if.then19
  %20 = load i64, ptr %nr.addr, align 8
  %cmp20 = icmp uge i64 %20, 64
  br i1 %cmp20, label %while.body, label %while.end

while.body:                                       ; preds = %while.cond
  %21 = load ptr, ptr %p, align 8
  %22 = load i64, ptr %21, align 8
  %tobool22 = icmp ne i64 %22, 0
  br i1 %tobool22, label %if.then23, label %if.end24

if.then23:                                        ; preds = %while.body
  store i8 1, ptr %dirty, align 1
  %23 = load ptr, ptr %p, align 8
  store i64 0, ptr %23, align 8
  br label %if.end24

if.end24:                                         ; preds = %if.then23, %while.body
  %24 = load i64, ptr %nr.addr, align 8
  %sub25 = sub i64 %24, 64
  store i64 %sub25, ptr %nr.addr, align 8
  %25 = load ptr, ptr %p, align 8
  %incdec.ptr26 = getelementptr i64, ptr %25, i32 1
  store ptr %incdec.ptr26, ptr %p, align 8
  br label %while.cond, !llvm.loop !18

while.end:                                        ; preds = %while.cond
  br label %if.end27

if.end27:                                         ; preds = %while.end, %if.end15
  %26 = load i64, ptr %nr.addr, align 8
  %tobool28 = icmp ne i64 %26, 0
  br i1 %tobool28, label %if.then29, label %if.end39

if.then29:                                        ; preds = %if.end27
  %27 = load i64, ptr %size, align 8
  %sub30 = sub i64 0, %27
  %and31 = and i64 %sub30, 63
  %shr = lshr i64 -1, %and31
  %28 = load i64, ptr %mask_to_clear, align 8
  %and32 = and i64 %28, %shr
  store i64 %and32, ptr %mask_to_clear, align 8
  %29 = load ptr, ptr %p, align 8
  %30 = load i64, ptr %29, align 8
  %31 = load i64, ptr %mask_to_clear, align 8
  %and33 = and i64 %30, %31
  %tobool34 = icmp ne i64 %and33, 0
  br i1 %tobool34, label %if.then35, label %if.end36

if.then35:                                        ; preds = %if.then29
  store i8 1, ptr %dirty, align 1
  br label %if.end36

if.end36:                                         ; preds = %if.then35, %if.then29
  %32 = load i64, ptr %mask_to_clear, align 8
  %not37 = xor i64 %32, -1
  %33 = load ptr, ptr %p, align 8
  %34 = load i64, ptr %33, align 8
  %and38 = and i64 %34, %not37
  store i64 %and38, ptr %33, align 8
  br label %if.end39

if.end39:                                         ; preds = %if.end36, %if.end27
  %35 = load i8, ptr %dirty, align 1
  %tobool40 = trunc i8 %35 to i1
  ret i1 %tobool40
}