; Function Attrs: nounwind sspstrong uwtable
define dso_local zeroext i1 @bitmap_test_and_clear(ptr noundef captures(none) %map, i64 noundef %start, i64 noundef %nr) local_unnamed_addr #2 {
entry:
  %div26 = lshr i64 %start, 6
  %add.ptr = getelementptr i64, ptr %map, i64 %div26
  %add = add i64 %start, %nr
  %and = and i64 %start, 63
  %shl = shl nsw i64 -1, %and
  %0 = or i64 %nr, %start
  %or.cond = icmp sgt i64 %0, -1
  br i1 %or.cond, label %if.end, label %if.else

if.else:                                          ; preds = %entry
  tail call void @__assert_fail(ptr noundef nonnull @.str, ptr noundef nonnull @.str.1, i32 noundef 251, ptr noundef nonnull @__PRETTY_FUNCTION__.bitmap_test_and_clear) #10
  unreachable

if.end:                                           ; preds = %entry
  %1 = trunc i64 %start to i32
  %2 = and i32 %1, 63
  %conv = sub nuw nsw i32 64, %2
  %conv4 = zext nneg i32 %conv to i64
  %sub5 = sub i64 %nr, %conv4
  %cmp6 = icmp sgt i64 %sub5, 0
  br i1 %cmp6, label %if.then8, label %if.end15

if.then8:                                         ; preds = %if.end
  %3 = load i64, ptr %add.ptr, align 8
  %and9 = and i64 %3, %shl
  %tobool.not = icmp ne i64 %and9, 0
  %not = xor i64 %shl, -1
  %and12 = and i64 %3, %not
  store i64 %and12, ptr %add.ptr, align 8
  %incdec.ptr = getelementptr i8, ptr %add.ptr, i64 8
  br label %if.end15

if.end15:                                         ; preds = %if.then8, %if.end
  %p.0 = phi ptr [ %incdec.ptr, %if.then8 ], [ %add.ptr, %if.end ]
  %nr.addr.0 = phi i64 [ %sub5, %if.then8 ], [ %nr, %if.end ]
  %bits_to_clear.0 = phi i32 [ 64, %if.then8 ], [ %conv, %if.end ]
  %dirty.0 = phi i1 [ %tobool.not, %if.then8 ], [ false, %if.end ]
  %cmp17 = icmp eq i32 %bits_to_clear.0, 64
  %cmp20 = icmp ugt i64 %nr.addr.0, 63
  %or.cond1 = and i1 %cmp20, %cmp17
  br i1 %or.cond1, label %while.body, label %if.end27

while.body:                                       ; preds = %if.end15, %if.end24
  %p.2 = phi ptr [ %incdec.ptr26, %if.end24 ], [ %p.0, %if.end15 ]
  %nr.addr.2 = phi i64 [ %sub25, %if.end24 ], [ %nr.addr.0, %if.end15 ]
  %dirty.3 = phi i1 [ %dirty.4, %if.end24 ], [ %dirty.0, %if.end15 ]
  %4 = load i64, ptr %p.2, align 8
  %tobool22.not = icmp eq i64 %4, 0
  br i1 %tobool22.not, label %if.end24, label %if.then23

if.then23:                                        ; preds = %while.body
  store i64 0, ptr %p.2, align 8
  br label %if.end24

if.end24:                                         ; preds = %if.then23, %while.body
  %dirty.4 = phi i1 [ true, %if.then23 ], [ %dirty.3, %while.body ]
  %sub25 = add nsw i64 %nr.addr.2, -64
  %incdec.ptr26 = getelementptr i8, ptr %p.2, i64 8
  %cmp20.old = icmp ugt i64 %sub25, 63
  br i1 %cmp20.old, label %while.body, label %if.end27

if.end27:                                         ; preds = %if.end24, %if.end15
  %p.1 = phi ptr [ %p.0, %if.end15 ], [ %incdec.ptr26, %if.end24 ]
  %nr.addr.1 = phi i64 [ %nr.addr.0, %if.end15 ], [ %sub25, %if.end24 ]
  %dirty.2 = phi i1 [ %dirty.0, %if.end15 ], [ %dirty.4, %if.end24 ]
  %tobool28.not = icmp eq i64 %nr.addr.1, 0
  br i1 %tobool28.not, label %if.end39, label %if.then29

if.then29:                                        ; preds = %if.end27
  %sub30 = sub i64 0, %add
  %and31 = and i64 %sub30, 63
  %shr = lshr i64 -1, %and31
  %and32 = and i64 %shr, %shl
  %5 = load i64, ptr %p.1, align 8
  %and33 = and i64 %5, %and32
  %tobool34.not = icmp ne i64 %and33, 0
  %spec.select27 = select i1 %tobool34.not, i1 true, i1 %dirty.2
  %not37 = xor i64 %and32, -1
  %and38 = and i64 %5, %not37
  store i64 %and38, ptr %p.1, align 8
  br label %if.end39

if.end39:                                         ; preds = %if.then29, %if.end27
  %dirty.5 = phi i1 [ %spec.select27, %if.then29 ], [ %dirty.2, %if.end27 ]
  ret i1 %dirty.5
}